; Function Attrs: nounwind uwtable
define i32 @Abc_NtkCleanupNodes(ptr noundef %0, ptr noundef readonly captures(none) %1, i32 noundef %2) local_unnamed_addr #0 {
  %4 = tail call noalias dereferenceable_or_null(16) ptr @malloc(i64 noundef 16) #12
  %5 = getelementptr inbounds nuw i8, ptr %4, i64 4
  store i32 0, ptr %5, align 4, !tbaa !26
  %6 = tail call noalias dereferenceable_or_null(8000) ptr @malloc(i64 noundef 8000) #12
  %7 = getelementptr inbounds nuw i8, ptr %4, i64 8
  store ptr %6, ptr %7, align 8, !tbaa !28
  %8 = getelementptr i8, ptr %0, i64 64
  %.val3042 = load ptr, ptr %8, align 8, !tbaa !77
  %9 = getelementptr i8, ptr %.val3042, i64 4
  %.val30.val43 = load i32, ptr %9, align 4, !tbaa !26
  %10 = icmp sgt i32 %.val30.val43, 0
  br i1 %10, label %.lr.ph, label %.critedge.preheader

..critedge.preheader_crit_edge:                   ; preds = %Vec_PtrPush.exit
  %11 = trunc nsw i64 %indvars.iv.next to i32
  br label %.critedge.preheader

.critedge.preheader:                              ; preds = %..critedge.preheader_crit_edge, %3
  %12 = phi i32 [ %41, %..critedge.preheader_crit_edge ], [ 1000, %3 ]
  %13 = phi i32 [ %11, %..critedge.preheader_crit_edge ], [ 0, %3 ]
  %14 = getelementptr i8, ptr %1, i64 4
  %.val2848 = load i32, ptr %14, align 4, !tbaa !26
  %15 = icmp sgt i32 %.val2848, 0
  br i1 %15, label %.lr.ph50, label %.critedge2

.lr.ph50:                                         ; preds = %.critedge.preheader
  %16 = getelementptr i8, ptr %1, i64 8
  br label %47

.lr.ph:                                           ; preds = %3, %Vec_PtrPush.exit
  %indvars.iv52 = phi i64 [ %indvars.iv.next53, %Vec_PtrPush.exit ], [ 0, %3 ]
  %indvars.iv = phi i64 [ %indvars.iv.next, %Vec_PtrPush.exit ], [ 0, %3 ]
  %17 = phi i32 [ %41, %Vec_PtrPush.exit ], [ 1000, %3 ]
  %.val3045 = phi ptr [ %.val30, %Vec_PtrPush.exit ], [ %.val3042, %3 ]
  %18 = getelementptr i8, ptr %.val3045, i64 8
  %.val31.val = load ptr, ptr %18, align 8, !tbaa !28
  %19 = getelementptr inbounds nuw ptr, ptr %.val31.val, i64 %indvars.iv52
  %20 = load ptr, ptr %19, align 8, !tbaa !29
  %21 = trunc nsw i64 %indvars.iv to i32
  %22 = icmp eq i32 %17, %21
  br i1 %22, label %23, label %.Vec_PtrGrow.exit11_crit_edge.i

.Vec_PtrGrow.exit11_crit_edge.i:                  ; preds = %.lr.ph
  %.pre.i = load ptr, ptr %7, align 8, !tbaa !28
  br label %Vec_PtrPush.exit

23:                                               ; preds = %.lr.ph
  %24 = icmp samesign ult i64 %indvars.iv, 16
  %25 = load ptr, ptr %7, align 8, !tbaa !28
  %.not9.i.i = icmp eq ptr %25, null
  br i1 %24, label %26, label %32

26:                                               ; preds = %23
  br i1 %.not9.i.i, label %29, label %27

27:                                               ; preds = %26
  %28 = tail call dereferenceable_or_null(128) ptr @realloc(ptr noundef nonnull %25, i64 noundef 128) #13
  br label %Vec_PtrGrow.exit.i

29:                                               ; preds = %26
  %30 = tail call noalias dereferenceable_or_null(128) ptr @malloc(i64 noundef 128) #12
  br label %Vec_PtrGrow.exit.i

Vec_PtrGrow.exit.i:                               ; preds = %29, %27
  %31 = phi ptr [ %28, %27 ], [ %30, %29 ]
  store ptr %31, ptr %7, align 8, !tbaa !28
  br label %Vec_PtrPush.exit

32:                                               ; preds = %23
  %33 = shl nuw nsw i64 %indvars.iv, 4
  br i1 %.not9.i.i, label %36, label %34

34:                                               ; preds = %32
  %35 = tail call ptr @realloc(ptr noundef nonnull %25, i64 noundef %33) #13
  br label %38

36:                                               ; preds = %32
  %37 = tail call noalias ptr @malloc(i64 noundef %33) #12
  br label %38

38:                                               ; preds = %36, %34
  %39 = phi ptr [ %35, %34 ], [ %37, %36 ]
  store ptr %39, ptr %7, align 8, !tbaa !28
  %indvars.iv.tr = trunc i64 %indvars.iv to i32
  %40 = shl i32 %indvars.iv.tr, 1
  br label %Vec_PtrPush.exit

Vec_PtrPush.exit:                                 ; preds = %.Vec_PtrGrow.exit11_crit_edge.i, %Vec_PtrGrow.exit.i, %38
  %41 = phi i32 [ %17, %.Vec_PtrGrow.exit11_crit_edge.i ], [ %40, %38 ], [ 16, %Vec_PtrGrow.exit.i ]
  %42 = phi ptr [ %.pre.i, %.Vec_PtrGrow.exit11_crit_edge.i ], [ %39, %38 ], [ %31, %Vec_PtrGrow.exit.i ]
  %indvars.iv.next = add nuw nsw i64 %indvars.iv, 1
  %43 = getelementptr inbounds nuw ptr, ptr %42, i64 %indvars.iv
  store ptr %20, ptr %43, align 8, !tbaa !29
  %indvars.iv.next53 = add nuw nsw i64 %indvars.iv52, 1
  %.val30 = load ptr, ptr %8, align 8, !tbaa !77
  %44 = getelementptr i8, ptr %.val30, i64 4
  %.val30.val = load i32, ptr %44, align 4, !tbaa !26
  %45 = sext i32 %.val30.val to i64
  %46 = icmp slt i64 %indvars.iv.next53, %45
  br i1 %46, label %.lr.ph, label %..critedge.preheader_crit_edge, !llvm.loop !82

47:                                               ; preds = %.lr.ph50, %.critedge
  %.val2860 = phi i32 [ %.val2848, %.lr.ph50 ], [ %.val28, %.critedge ]
  %48 = phi i32 [ %12, %.lr.ph50 ], [ %79, %.critedge ]
  %49 = phi i32 [ %13, %.lr.ph50 ], [ %80, %.critedge ]
  %indvars.iv57 = phi i64 [ 0, %.lr.ph50 ], [ %indvars.iv.next58, %.critedge ]
  %.val29 = load ptr, ptr %16, align 8, !tbaa !28
  %50 = getelementptr inbounds nuw ptr, ptr %.val29, i64 %indvars.iv57
  %51 = load ptr, ptr %50, align 8, !tbaa !29
  %.not27 = icmp eq ptr %51, null
  br i1 %.not27, label %.critedge, label %52

52:                                               ; preds = %47
  %53 = icmp eq i32 %49, %48
  br i1 %53, label %54, label %.Vec_PtrGrow.exit11_crit_edge.i33

.Vec_PtrGrow.exit11_crit_edge.i33:                ; preds = %52
  %.pre.i35 = load ptr, ptr %7, align 8, !tbaa !28
  br label %Vec_PtrPush.exit39

54:                                               ; preds = %52
  %55 = icmp slt i32 %48, 16
  br i1 %55, label %56, label %63

56:                                               ; preds = %54
  %57 = load ptr, ptr %7, align 8, !tbaa !28
  %.not9.i.i37 = icmp eq ptr %57, null
  br i1 %.not9.i.i37, label %60, label %58

58:                                               ; preds = %56
  %59 = tail call dereferenceable_or_null(128) ptr @realloc(ptr noundef nonnull %57, i64 noundef 128) #13
  br label %Vec_PtrGrow.exit.i38

60:                                               ; preds = %56
  %61 = tail call noalias dereferenceable_or_null(128) ptr @malloc(i64 noundef 128) #12
  br label %Vec_PtrGrow.exit.i38

Vec_PtrGrow.exit.i38:                             ; preds = %60, %58
  %62 = phi ptr [ %59, %58 ], [ %61, %60 ]
  store ptr %62, ptr %7, align 8, !tbaa !28
  store i32 16, ptr %4, align 8, !tbaa !71
  br label %Vec_PtrPush.exit39

63:                                               ; preds = %54
  %64 = shl nuw nsw i32 %48, 1
  %65 = load ptr, ptr %7, align 8, !tbaa !28
  %.not9.i10.i36 = icmp eq ptr %65, null
  %66 = zext nneg i32 %64 to i64
  %67 = shl nuw nsw i64 %66, 3
  br i1 %.not9.i10.i36, label %70, label %68

68:                                               ; preds = %63
  %69 = tail call ptr @realloc(ptr noundef nonnull %65, i64 noundef %67) #13
  br label %72

70:                                               ; preds = %63
  %71 = tail call noalias ptr @malloc(i64 noundef %67) #12
  br label %72

72:                                               ; preds = %70, %68
  %73 = phi ptr [ %69, %68 ], [ %71, %70 ]
  store ptr %73, ptr %7, align 8, !tbaa !28
  store i32 %64, ptr %4, align 8, !tbaa !71
  br label %Vec_PtrPush.exit39

Vec_PtrPush.exit39:                               ; preds = %.Vec_PtrGrow.exit11_crit_edge.i33, %Vec_PtrGrow.exit.i38, %72
  %74 = phi i32 [ %48, %.Vec_PtrGrow.exit11_crit_edge.i33 ], [ %64, %72 ], [ 16, %Vec_PtrGrow.exit.i38 ]
  %75 = phi ptr [ %.pre.i35, %.Vec_PtrGrow.exit11_crit_edge.i33 ], [ %73, %72 ], [ %62, %Vec_PtrGrow.exit.i38 ]
  %76 = add nsw i32 %49, 1
  %77 = sext i32 %49 to i64
  %78 = getelementptr inbounds ptr, ptr %75, i64 %77
  store ptr %51, ptr %78, align 8, !tbaa !29
  %.val28.pre = load i32, ptr %14, align 4, !tbaa !26
  br label %.critedge

.critedge:                                        ; preds = %47, %Vec_PtrPush.exit39
  %.val28 = phi i32 [ %.val2860, %47 ], [ %.val28.pre, %Vec_PtrPush.exit39 ]
  %79 = phi i32 [ %48, %47 ], [ %74, %Vec_PtrPush.exit39 ]
  %80 = phi i32 [ %49, %47 ], [ %76, %Vec_PtrPush.exit39 ]
  %indvars.iv.next58 = add nuw nsw i64 %indvars.iv57, 1
  %81 = sext i32 %.val28 to i64
  %82 = icmp slt i64 %indvars.iv.next58, %81
  br i1 %82, label %47, label %.critedge2, !llvm.loop !83

.critedge2:                                       ; preds = %.critedge, %.critedge.preheader
  %.val = phi i32 [ %13, %.critedge.preheader ], [ %80, %.critedge ]
  %.val32 = load ptr, ptr %7, align 8, !tbaa !28
  %83 = tail call ptr @Abc_NtkDfsNodes(ptr noundef %0, ptr noundef %.val32, i32 noundef %.val) #11
  %.not.i = icmp eq ptr %.val32, null
  br i1 %.not.i, label %Vec_PtrFree.exit, label %84

84:                                               ; preds = %.critedge2
  tail call void @free(ptr noundef nonnull %.val32) #11
  br label %Vec_PtrFree.exit

Vec_PtrFree.exit:                                 ; preds = %.critedge2, %84
  tail call void @free(ptr noundef nonnull %4) #11
  %85 = tail call fastcc i32 @Abc_NtkReduceNodes(ptr noundef %0, ptr noundef %83)
  %.not = icmp eq i32 %2, 0
  br i1 %.not, label %88, label %86

86:                                               ; preds = %Vec_PtrFree.exit
  %87 = tail call i32 (ptr, ...) @printf(ptr noundef nonnull dereferenceable(1) @.str.2, i32 noundef %85)
  br label %88

88:                                               ; preds = %86, %Vec_PtrFree.exit
  %89 = getelementptr inbounds nuw i8, ptr %83, i64 8
  %90 = load ptr, ptr %89, align 8, !tbaa !28
  %.not.i40 = icmp eq ptr %90, null
  br i1 %.not.i40, label %Vec_PtrFree.exit41, label %91

91:                                               ; preds = %88
  tail call void @free(ptr noundef nonnull %90) #11
  br label %Vec_PtrFree.exit41

Vec_PtrFree.exit41:                               ; preds = %88, %91
  tail call void @free(ptr noundef nonnull %83) #11
  ret i32 %85
}